; Function Attrs: mustprogress uwtable
define void @_ZNK3gmx26SelectionParserSymbolTable11endIteratorEv(ptr dead_on_unwind noalias writable sret(%"class.gmx::SelectionParserSymbolIterator") align 8 %0, ptr nocapture noundef nonnull readonly align 8 dereferenceable(8) %1) local_unnamed_addr #7 align 2 personality ptr @__gxx_personality_v0 {
  %3 = tail call noalias noundef nonnull dereferenceable(16) ptr @_Znwm(i64 noundef 16) #23
  %4 = load ptr, ptr %1, align 8
  %5 = getelementptr inbounds i8, ptr %4, i64 8
  store ptr %5, ptr %3, align 8
  %6 = getelementptr inbounds i8, ptr %3, i64 8
  store ptr %5, ptr %6, align 8
  tail call void @_ZN3gmx29SelectionParserSymbolIteratorC1EPNS0_4ImplE(ptr noundef nonnull align 8 dereferenceable(8) %0, ptr noundef nonnull %3)
  ret void
}